; ModuleID = '31/1120.c'
source_filename = "31/1120.c"
target datalayout = "e-m:e-p270:32:32-p271:32:32-p272:64:64-i64:64-f80:128-n8:16:32:64-S128"
target triple = "x86_64-pc-linux-gnu"

%struct.student = type { [15 x i8], [30 x i8], i8, [3 x i8], [10 x i8], [15 x i8] }

@stu = dso_local global [1000 x %struct.student] zeroinitializer, align 16
@.str = private unnamed_addr constant [3 x i8] c"%s\00", align 1
@.str.1 = private unnamed_addr constant [15 x i8] c"%s %c %s %s %s\00", align 1
@.str.2 = private unnamed_addr constant [19 x i8] c"%s %s %c %s %s %s\0A\00", align 1

; Function Attrs: noinline nounwind uwtable
define dso_local i32 @main() #0 {
  %1 = alloca i32, align 4
  %2 = alloca i32, align 4
  store i32 0, i32* %1, align 4
  store i32 0, i32* %2, align 4
  br label %3

3:                                                ; preds = %0, %47
  %4 = load i32, i32* %2, align 4
  %5 = sext i32 %4 to i64
  %6 = getelementptr inbounds [1000 x %struct.student], [1000 x %struct.student]* @stu, i64 0, i64 %5
  %7 = getelementptr inbounds %struct.student, %struct.student* %6, i32 0, i32 0
  %8 = getelementptr inbounds [15 x i8], [15 x i8]* %7, i64 0, i64 0
  %9 = call i32 (i8*, ...) @__isoc99_scanf(i8* getelementptr inbounds ([3 x i8], [3 x i8]* @.str, i64 0, i64 0), i8* %8)
  %10 = load i32, i32* %2, align 4
  %11 = sext i32 %10 to i64
  %12 = getelementptr inbounds [1000 x %struct.student], [1000 x %struct.student]* @stu, i64 0, i64 %11
  %13 = getelementptr inbounds %struct.student, %struct.student* %12, i32 0, i32 0
  %14 = getelementptr inbounds [15 x i8], [15 x i8]* %13, i64 0, i64 0
  %15 = load i8, i8* %14, align 2
  %16 = sext i8 %15 to i32
  %17 = icmp eq i32 %16, 101
  br i1 %17, label %18, label %19

18:                                               ; preds = %3
  br label %48

19:                                               ; preds = %3
  %20 = load i32, i32* %2, align 4
  %21 = sext i32 %20 to i64
  %22 = getelementptr inbounds [1000 x %struct.student], [1000 x %struct.student]* @stu, i64 0, i64 %21
  %23 = getelementptr inbounds %struct.student, %struct.student* %22, i32 0, i32 1
  %24 = getelementptr inbounds [30 x i8], [30 x i8]* %23, i64 0, i64 0
  %25 = load i32, i32* %2, align 4
  %26 = sext i32 %25 to i64
  %27 = getelementptr inbounds [1000 x %struct.student], [1000 x %struct.student]* @stu, i64 0, i64 %26
  %28 = getelementptr inbounds %struct.student, %struct.student* %27, i32 0, i32 2
  %29 = load i32, i32* %2, align 4
  %30 = sext i32 %29 to i64
  %31 = getelementptr inbounds [1000 x %struct.student], [1000 x %struct.student]* @stu, i64 0, i64 %30
  %32 = getelementptr inbounds %struct.student, %struct.student* %31, i32 0, i32 3
  %33 = getelementptr inbounds [3 x i8], [3 x i8]* %32, i64 0, i64 0
  %34 = load i32, i32* %2, align 4
  %35 = sext i32 %34 to i64
  %36 = getelementptr inbounds [1000 x %struct.student], [1000 x %struct.student]* @stu, i64 0, i64 %35
  %37 = getelementptr inbounds %struct.student, %struct.student* %36, i32 0, i32 4
  %38 = getelementptr inbounds [10 x i8], [10 x i8]* %37, i64 0, i64 0
  %39 = load i32, i32* %2, align 4
  %40 = sext i32 %39 to i64
  %41 = getelementptr inbounds [1000 x %struct.student], [1000 x %struct.student]* @stu, i64 0, i64 %40
  %42 = getelementptr inbounds %struct.student, %struct.student* %41, i32 0, i32 5
  %43 = getelementptr inbounds [15 x i8], [15 x i8]* %42, i64 0, i64 0
  %44 = call i32 (i8*, ...) @__isoc99_scanf(i8* getelementptr inbounds ([15 x i8], [15 x i8]* @.str.1, i64 0, i64 0), i8* %24, i8* %28, i8* %33, i8* %38, i8* %43)
  %45 = load i32, i32* %2, align 4
  %46 = add nsw i32 %45, 1
  store i32 %46, i32* %2, align 4
  br label %47

47:                                               ; preds = %19
  br label %3

48:                                               ; preds = %18
  %49 = load i32, i32* %2, align 4
  %50 = sub nsw i32 %49, 1
  store i32 %50, i32* %2, align 4
  br label %51

51:                                               ; preds = %87, %48
  %52 = load i32, i32* %2, align 4
  %53 = icmp sge i32 %52, 0
  br i1 %53, label %54, label %90

54:                                               ; preds = %51
  %55 = load i32, i32* %2, align 4
  %56 = sext i32 %55 to i64
  %57 = getelementptr inbounds [1000 x %struct.student], [1000 x %struct.student]* @stu, i64 0, i64 %56
  %58 = getelementptr inbounds %struct.student, %struct.student* %57, i32 0, i32 0
  %59 = getelementptr inbounds [15 x i8], [15 x i8]* %58, i64 0, i64 0
  %60 = load i32, i32* %2, align 4
  %61 = sext i32 %60 to i64
  %62 = getelementptr inbounds [1000 x %struct.student], [1000 x %struct.student]* @stu, i64 0, i64 %61
  %63 = getelementptr inbounds %struct.student, %struct.student* %62, i32 0, i32 1
  %64 = getelementptr inbounds [30 x i8], [30 x i8]* %63, i64 0, i64 0
  %65 = load i32, i32* %2, align 4
  %66 = sext i32 %65 to i64
  %67 = getelementptr inbounds [1000 x %struct.student], [1000 x %struct.student]* @stu, i64 0, i64 %66
  %68 = getelementptr inbounds %struct.student, %struct.student* %67, i32 0, i32 2
  %69 = load i8, i8* %68, align 1
  %70 = sext i8 %69 to i32
  %71 = load i32, i32* %2, align 4
  %72 = sext i32 %71 to i64
  %73 = getelementptr inbounds [1000 x %struct.student], [1000 x %struct.student]* @stu, i64 0, i64 %72
  %74 = getelementptr inbounds %struct.student, %struct.student* %73, i32 0, i32 3
  %75 = getelementptr inbounds [3 x i8], [3 x i8]* %74, i64 0, i64 0
  %76 = load i32, i32* %2, align 4
  %77 = sext i32 %76 to i64
  %78 = getelementptr inbounds [1000 x %struct.student], [1000 x %struct.student]* @stu, i64 0, i64 %77
  %79 = getelementptr inbounds %struct.student, %struct.student* %78, i32 0, i32 4
  %80 = getelementptr inbounds [10 x i8], [10 x i8]* %79, i64 0, i64 0
  %81 = load i32, i32* %2, align 4
  %82 = sext i32 %81 to i64
  %83 = getelementptr inbounds [1000 x %struct.student], [1000 x %struct.student]* @stu, i64 0, i64 %82
  %84 = getelementptr inbounds %struct.student, %struct.student* %83, i32 0, i32 5
  %85 = getelementptr inbounds [15 x i8], [15 x i8]* %84, i64 0, i64 0
  %86 = call i32 (i8*, ...) @printf(i8* getelementptr inbounds ([19 x i8], [19 x i8]* @.str.2, i64 0, i64 0), i8* %59, i8* %64, i32 %70, i8* %75, i8* %80, i8* %85)
  br label %87

87:                                               ; preds = %54
  %88 = load i32, i32* %2, align 4
  %89 = add nsw i32 %88, -1
  store i32 %89, i32* %2, align 4
  br label %51

90:                                               ; preds = %51
  ret i32 0
}

declare dso_local i32 @__isoc99_scanf(i8*, ...) #1

declare dso_local i32 @printf(i8*, ...) #1


!llvm.module.flags = !{!0}
!llvm.ident = !{!1}

!0 = !{i32 1, !"wchar_size", i32 4}
!1 = !{!"clang version 10.0.0-4ubuntu1 "}
